target datalayout = "e-m:e-p270:32:32-p271:32:32-p272:64:64-i64:64-i128:128-f80:128-n8:16:32:64-S128"
target triple = "x86_64-unknown-linux-gnu"

%"class.cvc5::parser::Smt2TermParser" = type { ptr, ptr, ptr }

; Function Attrs: mustprogress uwtable
define hidden noundef ptr @_ZN4cvc56parser14Smt2TermParser18parseGrammarOrNullERKSt6vectorINS_4TermESaIS3_EERKNSt7__cxx1112basic_stringIcSt11char_traitsIcESaIcEEE(ptr noundef nonnull align 8 dereferenceable(24) %this, ptr noundef nonnull align 8 dereferenceable(24) %sygusVars, ptr noundef nonnull align 8 dereferenceable(32) %fun) #3 align 2 {
entry:
  %retval = alloca ptr, align 8
  %this.addr = alloca ptr, align 8
  %sygusVars.addr = alloca ptr, align 8
  %fun.addr = alloca ptr, align 8
  %t = alloca i32, align 4
  store ptr %this, ptr %this.addr, align 8
  store ptr %sygusVars, ptr %sygusVars.addr, align 8
  store ptr %fun, ptr %fun.addr, align 8
  %this1 = load ptr, ptr %this.addr, align 8
  %d_lex = getelementptr inbounds %"class.cvc5::parser::Smt2TermParser", ptr %this1, i32 0, i32 1
  %0 = load ptr, ptr %d_lex, align 8
  %call = call noundef i32 @_ZN4cvc56parser5Lexer9peekTokenEv(ptr noundef nonnull align 8 dereferenceable(32892) %0)
  store i32 %call, ptr %t, align 4
  %1 = load i32, ptr %t, align 4
  %cmp = icmp ne i32 %1, 63
  br i1 %cmp, label %if.then, label %if.end

if.then:                                          ; preds = %entry
  store ptr null, ptr %retval, align 8
  br label %return

if.end:                                           ; preds = %entry
  %2 = load ptr, ptr %sygusVars.addr, align 8
  %3 = load ptr, ptr %fun.addr, align 8
  %call2 = call noundef ptr @_ZN4cvc56parser14Smt2TermParser12parseGrammarERKSt6vectorINS_4TermESaIS3_EERKNSt7__cxx1112basic_stringIcSt11char_traitsIcESaIcEEE(ptr noundef nonnull align 8 dereferenceable(24) %this1, ptr noundef nonnull align 8 dereferenceable(24) %2, ptr noundef nonnull align 8 dereferenceable(32) %3)
  store ptr %call2, ptr %retval, align 8
  br label %return

return:                                           ; preds = %if.end, %if.then
  %4 = load ptr, ptr %retval, align 8
  ret ptr %4
}