; Function Attrs: mustprogress uwtable
define hidden noundef ptr @_ZN4cvc56parser14Smt2TermParser18parseGrammarOrNullERKSt6vectorINS_4TermESaIS3_EERKNSt7__cxx1112basic_stringIcSt11char_traitsIcESaIcEEE(ptr nocapture noundef nonnull readonly align 8 dereferenceable(24) %this, ptr noundef nonnull align 8 dereferenceable(24) %sygusVars, ptr nocapture noundef nonnull readnone align 8 dereferenceable(32) %fun) local_unnamed_addr #5 align 2 {
entry:
  %d_lex = getelementptr inbounds i8, ptr %this, i64 8
  %0 = load ptr, ptr %d_lex, align 8
  %call = tail call noundef i32 @_ZN4cvc56parser5Lexer9peekTokenEv(ptr noundef nonnull align 8 dereferenceable(32892) %0)
  %cmp.not = icmp eq i32 %call, 63
  br i1 %cmp.not, label %if.end, label %return

if.end:                                           ; preds = %entry
  %call2 = tail call noundef ptr @_ZN4cvc56parser14Smt2TermParser12parseGrammarERKSt6vectorINS_4TermESaIS3_EERKNSt7__cxx1112basic_stringIcSt11char_traitsIcESaIcEEE(ptr noundef nonnull align 8 dereferenceable(24) %this, ptr noundef nonnull align 8 dereferenceable(24) %sygusVars, ptr nonnull align 8 poison)
  br label %return

return:                                           ; preds = %entry, %if.end
  %retval.0 = phi ptr [ %call2, %if.end ], [ null, %entry ]
  ret ptr %retval.0
}